; Function Attrs: nounwind uwtable
define dso_local zeroext i1 @gres_is_shared_name(ptr noundef %0) local_unnamed_addr #2 {
  %2 = tail call i32 @xstrcmp(ptr noundef %0, ptr noundef nonnull @.str.3) #28
  %.not = icmp eq i32 %2, 0
  br i1 %.not, label %5, label %3

3:                                                ; preds = %1
  %4 = tail call i32 @xstrcmp(ptr noundef %0, ptr noundef nonnull @.str.4) #28
  %.not3 = icmp eq i32 %4, 0
  br label %5

5:                                                ; preds = %3, %1
  %.0 = phi i1 [ true, %1 ], [ %.not3, %3 ]
  ret i1 %.0
}